; Function Attrs: nounwind uwtable
define dso_local range(i32 0, 2) i32 @main() local_unnamed_addr #0 {
  %1 = alloca ptr, align 8
  %2 = alloca double, align 8
  %3 = alloca ptr, align 8
  call void @llvm.lifetime.start.p0(i64 8, ptr nonnull %1) #6
  call void @llvm.lifetime.start.p0(i64 8, ptr nonnull %2) #6
  call void @llvm.lifetime.start.p0(i64 8, ptr nonnull %3) #6
  %puts = tail call i32 @puts(ptr nonnull dereferenceable(1) @str)
  %puts21 = tail call i32 @puts(ptr nonnull dereferenceable(1) @str.1)
  %puts22 = tail call i32 @puts(ptr nonnull dereferenceable(1) @str.2)
  %puts23 = tail call i32 @puts(ptr nonnull dereferenceable(1) @str.3)
  %4 = tail call i32 (ptr, ...) @printf(ptr noundef nonnull dereferenceable(1) @.str.4, i64 noundef 31, i64 noundef 31, i64 noundef 961)
  %5 = call i32 @SUNContext_Create(i32 noundef 0, ptr noundef nonnull %1) #6
  %6 = icmp slt i32 %5, 0
  br i1 %6, label %check_retval.exit, label %9

check_retval.exit:                                ; preds = %0
  %7 = load ptr, ptr @stderr, align 8, !tbaa !4
  %8 = call i32 (ptr, ptr, ...) @fprintf(ptr noundef %7, ptr noundef nonnull @.str.33, ptr noundef nonnull @.str.5, i32 noundef %5) #7
  br label %81

9:                                                ; preds = %0
  %10 = load ptr, ptr %1, align 8, !tbaa !9
  %11 = call ptr @N_VNew_Serial(i64 noundef 961, ptr noundef %10) #6
  %12 = icmp eq ptr %11, null
  br i1 %12, label %check_retval.exit37, label %15

check_retval.exit37:                              ; preds = %9
  %13 = load ptr, ptr @stderr, align 8, !tbaa !4
  %14 = call i32 (ptr, ptr, ...) @fprintf(ptr noundef %13, ptr noundef nonnull @.str.32, ptr noundef nonnull @.str.6) #7
  br label %81

15:                                               ; preds = %9
  %16 = load ptr, ptr %1, align 8, !tbaa !9
  %17 = call ptr @N_VNew_Serial(i64 noundef 961, ptr noundef %16) #6
  %18 = icmp eq ptr %17, null
  br i1 %18, label %check_retval.exit39, label %21

check_retval.exit39:                              ; preds = %15
  %19 = load ptr, ptr @stderr, align 8, !tbaa !4
  %20 = call i32 (ptr, ptr, ...) @fprintf(ptr noundef %19, ptr noundef nonnull @.str.32, ptr noundef nonnull @.str.6) #7
  br label %81

21:                                               ; preds = %15
  %22 = load ptr, ptr %1, align 8, !tbaa !9
  %23 = call ptr @KINCreate(ptr noundef %22) #6
  store ptr %23, ptr %3, align 8, !tbaa !11
  %24 = icmp eq ptr %23, null
  br i1 %24, label %check_retval.exit41, label %27

check_retval.exit41:                              ; preds = %21
  %25 = load ptr, ptr @stderr, align 8, !tbaa !4
  %26 = call i32 (ptr, ptr, ...) @fprintf(ptr noundef %25, ptr noundef nonnull @.str.32, ptr noundef nonnull @.str.7) #7
  br label %81

27:                                               ; preds = %21
  %28 = call i32 @KINSetMAA(ptr noundef nonnull %23, i64 noundef 3) #6
  %29 = icmp slt i32 %28, 0
  br i1 %29, label %check_retval.exit43, label %32

check_retval.exit43:                              ; preds = %27
  %30 = load ptr, ptr @stderr, align 8, !tbaa !4
  %31 = call i32 (ptr, ptr, ...) @fprintf(ptr noundef %30, ptr noundef nonnull @.str.33, ptr noundef nonnull @.str.8, i32 noundef %28) #7
  br label %81

32:                                               ; preds = %27
  %33 = call i32 @KINInit(ptr noundef nonnull %23, ptr noundef nonnull @func, ptr noundef nonnull %11) #6
  %34 = icmp slt i32 %33, 0
  br i1 %34, label %check_retval.exit45, label %37

check_retval.exit45:                              ; preds = %32
  %35 = load ptr, ptr @stderr, align 8, !tbaa !4
  %36 = call i32 (ptr, ptr, ...) @fprintf(ptr noundef %35, ptr noundef nonnull @.str.33, ptr noundef nonnull @.str.9, i32 noundef %33) #7
  br label %81

37:                                               ; preds = %32
  %38 = call i32 @KINSetFuncNormTol(ptr noundef nonnull %23, double noundef 0x3D719799812DEA11) #6
  %39 = icmp slt i32 %38, 0
  br i1 %39, label %check_retval.exit47, label %42

check_retval.exit47:                              ; preds = %37
  %40 = load ptr, ptr @stderr, align 8, !tbaa !4
  %41 = call i32 (ptr, ptr, ...) @fprintf(ptr noundef %40, ptr noundef nonnull @.str.33, ptr noundef nonnull @.str.10, i32 noundef %38) #7
  br label %81

42:                                               ; preds = %37
  %43 = load ptr, ptr %1, align 8, !tbaa !9
  %44 = call ptr @SUNBandMatrix(i64 noundef 961, i64 noundef 31, i64 noundef 31, ptr noundef %43) #6
  %45 = icmp eq ptr %44, null
  br i1 %45, label %check_retval.exit49, label %48

check_retval.exit49:                              ; preds = %42
  %46 = load ptr, ptr @stderr, align 8, !tbaa !4
  %47 = call i32 (ptr, ptr, ...) @fprintf(ptr noundef %46, ptr noundef nonnull @.str.32, ptr noundef nonnull @.str.11) #7
  br label %81

48:                                               ; preds = %42
  %49 = load ptr, ptr %1, align 8, !tbaa !9
  %50 = call ptr @SUNLinSol_Band(ptr noundef nonnull %11, ptr noundef nonnull %44, ptr noundef %49) #6
  %51 = icmp eq ptr %50, null
  br i1 %51, label %check_retval.exit51, label %54

check_retval.exit51:                              ; preds = %48
  %52 = load ptr, ptr @stderr, align 8, !tbaa !4
  %53 = call i32 (ptr, ptr, ...) @fprintf(ptr noundef %52, ptr noundef nonnull @.str.32, ptr noundef nonnull @.str.12) #7
  br label %81

54:                                               ; preds = %48
  %55 = call i32 @KINSetLinearSolver(ptr noundef nonnull %23, ptr noundef nonnull %50, ptr noundef nonnull %44) #6
  %56 = icmp slt i32 %55, 0
  br i1 %56, label %check_retval.exit53, label %59

check_retval.exit53:                              ; preds = %54
  %57 = load ptr, ptr @stderr, align 8, !tbaa !4
  %58 = call i32 (ptr, ptr, ...) @fprintf(ptr noundef %57, ptr noundef nonnull @.str.33, ptr noundef nonnull @.str.13, i32 noundef %55) #7
  br label %81

59:                                               ; preds = %54
  %60 = call i32 @KINSetJacFn(ptr noundef nonnull %23, ptr noundef nonnull @jac) #6
  %61 = icmp slt i32 %60, 0
  br i1 %61, label %check_retval.exit55, label %64

check_retval.exit55:                              ; preds = %59
  %62 = load ptr, ptr @stderr, align 8, !tbaa !4
  %63 = call i32 (ptr, ptr, ...) @fprintf(ptr noundef %62, ptr noundef nonnull @.str.33, ptr noundef nonnull @.str.14, i32 noundef %60) #7
  br label %81

64:                                               ; preds = %59
  call void @N_VConst(double noundef 0.000000e+00, ptr noundef nonnull %11) #6
  %65 = call ptr @N_VGetArrayPointer(ptr noundef nonnull %11) #6
  %66 = getelementptr inbounds nuw i8, ptr %65, i64 256
  store double 1.000000e+00, ptr %66, align 8, !tbaa !12
  call void @N_VConst(double noundef 1.000000e+00, ptr noundef nonnull %17) #6
  %67 = call i32 @KINSol(ptr noundef nonnull %23, ptr noundef nonnull %11, i32 noundef 2, ptr noundef nonnull %17, ptr noundef nonnull %17) #6
  %68 = icmp slt i32 %67, 0
  br i1 %68, label %check_retval.exit57, label %71

check_retval.exit57:                              ; preds = %64
  %69 = load ptr, ptr @stderr, align 8, !tbaa !4
  %70 = call i32 (ptr, ptr, ...) @fprintf(ptr noundef %69, ptr noundef nonnull @.str.33, ptr noundef nonnull @.str.15, i32 noundef %67) #7
  br label %81

71:                                               ; preds = %64
  %72 = call i32 @KINGetFuncNorm(ptr noundef nonnull %23, ptr noundef nonnull %2) #6
  %73 = icmp slt i32 %72, 0
  br i1 %73, label %check_retval.exit59, label %76

check_retval.exit59:                              ; preds = %71
  %74 = load ptr, ptr @stderr, align 8, !tbaa !4
  %75 = call i32 (ptr, ptr, ...) @fprintf(ptr noundef %74, ptr noundef nonnull @.str.33, ptr noundef nonnull @.str.16, i32 noundef %72) #7
  br label %81

76:                                               ; preds = %71
  %77 = load double, ptr %2, align 8, !tbaa !12
  %78 = call i32 (ptr, ...) @printf(ptr noundef nonnull dereferenceable(1) @.str.17, double noundef %77)
  call fastcc void @PrintOutput(ptr noundef nonnull %11)
  call fastcc void @PrintFinalStats(ptr noundef nonnull %23)
  call void @N_VDestroy(ptr noundef nonnull %11) #6
  call void @N_VDestroy(ptr noundef nonnull %17) #6
  call void @KINFree(ptr noundef nonnull %3) #6
  %79 = call i32 @SUNLinSolFree(ptr noundef nonnull %50) #6
  call void @SUNMatDestroy(ptr noundef nonnull %44) #6
  %80 = call i32 @SUNContext_Free(ptr noundef nonnull %1) #6
  br label %81

81:                                               ; preds = %check_retval.exit59, %check_retval.exit57, %check_retval.exit55, %check_retval.exit53, %check_retval.exit51, %check_retval.exit49, %check_retval.exit47, %check_retval.exit45, %check_retval.exit43, %check_retval.exit41, %check_retval.exit39, %check_retval.exit37, %check_retval.exit, %76
  %.0 = phi i32 [ 0, %76 ], [ 1, %check_retval.exit ], [ 1, %check_retval.exit37 ], [ 1, %check_retval.exit39 ], [ 1, %check_retval.exit41 ], [ 1, %check_retval.exit43 ], [ 1, %check_retval.exit45 ], [ 1, %check_retval.exit47 ], [ 1, %check_retval.exit49 ], [ 1, %check_retval.exit51 ], [ 1, %check_retval.exit53 ], [ 1, %check_retval.exit55 ], [ 1, %check_retval.exit57 ], [ 1, %check_retval.exit59 ]
  call void @llvm.lifetime.end.p0(i64 8, ptr nonnull %3) #6
  call void @llvm.lifetime.end.p0(i64 8, ptr nonnull %2) #6
  call void @llvm.lifetime.end.p0(i64 8, ptr nonnull %1) #6
  ret i32 %.0
}